; Function Attrs: alwaysinline norecurse nounwind uwtable
define internal void @_ZNK8LightGBM16RegressionMetricINS_14FairLossMetricEE4EvalEPKdPKNS_17ObjectiveFunctionE.omp_outlined(ptr noalias noundef readonly captures(none) %0, ptr noalias readnone captures(none) %1, ptr noundef readonly captures(none) %2, ptr noundef nonnull align 8 captures(none) dereferenceable(8) %3, ptr noundef nonnull readonly align 8 captures(none) dereferenceable(8) %4) #15 personality ptr @__gxx_personality_v0 {
  %6 = alloca i32, align 4
  %7 = alloca i32, align 4
  %8 = alloca i32, align 4
  %9 = alloca i32, align 4
  %10 = alloca double, align 8
  %11 = alloca [1 x ptr], align 8
  %12 = getelementptr inbounds nuw i8, ptr %2, i64 8
  %13 = load i32, ptr %12, align 8, !tbaa !155
  %14 = icmp sgt i32 %13, 0
  br i1 %14, label %15, label %54

15:                                               ; preds = %5
  %16 = add nsw i32 %13, -1
  call void @llvm.lifetime.start.p0(i64 4, ptr nonnull %6) #16
  store i32 0, ptr %6, align 4, !tbaa !127
  call void @llvm.lifetime.start.p0(i64 4, ptr nonnull %7) #16
  store i32 %16, ptr %7, align 4, !tbaa !127
  call void @llvm.lifetime.start.p0(i64 4, ptr nonnull %8) #16
  store i32 1, ptr %8, align 4, !tbaa !127
  call void @llvm.lifetime.start.p0(i64 4, ptr nonnull %9) #16
  store i32 0, ptr %9, align 4, !tbaa !127
  call void @llvm.lifetime.start.p0(i64 8, ptr nonnull %10) #16
  store double 0.000000e+00, ptr %10, align 8, !tbaa !84
  %17 = load i32, ptr %0, align 4, !tbaa !127
  call void @__kmpc_for_static_init_4(ptr nonnull @1, i32 %17, i32 34, ptr nonnull %9, ptr nonnull %6, ptr nonnull %7, ptr nonnull %8, i32 1, i32 1)
  %18 = load i32, ptr %7, align 4, !tbaa !127
  %19 = call i32 @llvm.smin.i32(i32 %18, i32 %16)
  store i32 %19, ptr %7, align 4, !tbaa !127
  %20 = load i32, ptr %6, align 4, !tbaa !127
  %.not15 = icmp sgt i32 %20, %19
  br i1 %.not15, label %._crit_edge, label %.lr.ph

.lr.ph:                                           ; preds = %15
  %21 = getelementptr inbounds nuw i8, ptr %2, i64 16
  %22 = load ptr, ptr %21, align 8, !tbaa !157
  %23 = load ptr, ptr %4, align 8, !tbaa !81
  %24 = getelementptr inbounds nuw i8, ptr %2, i64 1352
  %25 = load double, ptr %24, align 8, !tbaa !161
  %26 = fmul double %25, %25
  %27 = sext i32 %20 to i64
  br label %28

28:                                               ; preds = %.lr.ph, %28
  %indvars.iv = phi i64 [ %27, %.lr.ph ], [ %indvars.iv.next, %28 ]
  %29 = phi double [ 0.000000e+00, %.lr.ph ], [ %42, %28 ]
  %30 = getelementptr inbounds float, ptr %22, i64 %indvars.iv
  %31 = load float, ptr %30, align 4, !tbaa !78
  %32 = getelementptr inbounds double, ptr %23, i64 %indvars.iv
  %33 = load double, ptr %32, align 8, !tbaa !84
  %34 = fpext float %31 to double
  %35 = fsub double %33, %34
  %36 = call double @llvm.fabs.f64(double %35)
  %37 = fdiv double %36, %25
  %38 = call double @log1p(double noundef %37) #16, !tbaa !127
  %39 = fneg double %38
  %40 = fmul double %26, %39
  %41 = call noundef double @llvm.fmuladd.f64(double %25, double %36, double %40)
  %42 = fadd double %29, %41
  store double %42, ptr %10, align 8, !tbaa !84
  %indvars.iv.next = add nsw i64 %indvars.iv, 1
  %43 = load i32, ptr %7, align 4, !tbaa !127
  %44 = sext i32 %43 to i64
  %.not.not = icmp slt i64 %indvars.iv, %44
  br i1 %.not.not, label %28, label %._crit_edge

._crit_edge:                                      ; preds = %28, %15
  call void @__kmpc_for_static_fini(ptr nonnull @1, i32 %17)
  store ptr %10, ptr %11, align 8
  %45 = call i32 @__kmpc_reduce_nowait(ptr nonnull @2, i32 %17, i32 1, i64 8, ptr nonnull %11, ptr nonnull @_ZNK8LightGBM16RegressionMetricINS_14FairLossMetricEE4EvalEPKdPKNS_17ObjectiveFunctionE.omp_outlined.omp.reduction.reduction_func, ptr nonnull @.gomp_critical_user_.reduction.var)
  switch i32 %45, label %53 [
    i32 1, label %46
    i32 2, label %50
  ]

46:                                               ; preds = %._crit_edge
  %47 = load double, ptr %3, align 8, !tbaa !84
  %48 = load double, ptr %10, align 8, !tbaa !84
  %49 = fadd double %47, %48
  store double %49, ptr %3, align 8, !tbaa !84
  call void @__kmpc_end_reduce_nowait(ptr nonnull @2, i32 %17, ptr nonnull @.gomp_critical_user_.reduction.var)
  br label %53

50:                                               ; preds = %._crit_edge
  %51 = load double, ptr %10, align 8, !tbaa !84
  %52 = atomicrmw fadd ptr %3, double %51 monotonic, align 8
  br label %53

53:                                               ; preds = %50, %46, %._crit_edge
  call void @llvm.lifetime.end.p0(i64 8, ptr nonnull %10) #16
  call void @llvm.lifetime.end.p0(i64 4, ptr nonnull %9) #16
  call void @llvm.lifetime.end.p0(i64 4, ptr nonnull %8) #16
  call void @llvm.lifetime.end.p0(i64 4, ptr nonnull %7) #16
  call void @llvm.lifetime.end.p0(i64 4, ptr nonnull %6) #16
  br label %54

54:                                               ; preds = %53, %5
  ret void
}